; Function Attrs: mustprogress nofree norecurse nounwind willreturn uwtable
define internal void @_ZNK9grpc_core12_GLOBAL__N_121OldWeightedRoundRobin32WeightedRoundRobinSubchannelList15work_serializerEv(ptr noalias nocapture writeonly sret(%"class.std::shared_ptr") align 8 %agg.result, ptr nocapture noundef nonnull readonly align 8 dereferenceable(96) %this) unnamed_addr #20 align 2 personality ptr @__gxx_personality_v0 {
entry:
  %0 = getelementptr inbounds i8, ptr %this, i64 16
  %this.val = load ptr, ptr %0, align 8
  tail call void @llvm.experimental.noalias.scope.decl(metadata !55)
  %work_serializer_.i = getelementptr inbounds i8, ptr %this.val, i64 16
  %1 = load ptr, ptr %work_serializer_.i, align 8, !noalias !55
  store ptr %1, ptr %agg.result, align 8, !alias.scope !55
  %_M_refcount.i.i.i = getelementptr inbounds i8, ptr %agg.result, i64 8
  %_M_refcount3.i.i.i = getelementptr inbounds i8, ptr %this.val, i64 24
  %2 = load ptr, ptr %_M_refcount3.i.i.i, align 8, !noalias !55
  store ptr %2, ptr %_M_refcount.i.i.i, align 8, !alias.scope !55
  %cmp.not.i.i.i.i = icmp eq ptr %2, null
  br i1 %cmp.not.i.i.i.i, label %_ZNK9grpc_core19LoadBalancingPolicy15work_serializerEv.exit, label %if.then.i.i.i.i

if.then.i.i.i.i:                                  ; preds = %entry
  %_M_use_count.i.i.i.i.i = getelementptr inbounds i8, ptr %2, i64 8
  %3 = load i8, ptr @__libc_single_threaded, align 1, !noalias !55
  %tobool.i.i.not.i.i.i.i.i = icmp eq i8 %3, 0
  br i1 %tobool.i.i.not.i.i.i.i.i, label %if.else.i.i.i.i.i.i, label %if.then.i.i.i.i.i.i

if.then.i.i.i.i.i.i:                              ; preds = %if.then.i.i.i.i
  %4 = load i32, ptr %_M_use_count.i.i.i.i.i, align 4, !noalias !55
  %add.i.i.i.i.i.i = add nsw i32 %4, 1
  store i32 %add.i.i.i.i.i.i, ptr %_M_use_count.i.i.i.i.i, align 4, !noalias !55
  br label %_ZNK9grpc_core19LoadBalancingPolicy15work_serializerEv.exit

if.else.i.i.i.i.i.i:                              ; preds = %if.then.i.i.i.i
  %5 = atomicrmw volatile add ptr %_M_use_count.i.i.i.i.i, i32 1 acq_rel, align 4, !noalias !55
  br label %_ZNK9grpc_core19LoadBalancingPolicy15work_serializerEv.exit

_ZNK9grpc_core19LoadBalancingPolicy15work_serializerEv.exit: ; preds = %entry, %if.then.i.i.i.i.i.i, %if.else.i.i.i.i.i.i
  ret void
}